target datalayout = "e-m:e-p270:32:32-p271:32:32-p272:64:64-i64:64-i128:128-f80:128-n8:16:32:64-S128"
target triple = "x86_64-pc-linux-gnu"

%struct.FunctionCallInfoBaseData = type { ptr, ptr, ptr, i32, i8, i16, [0 x %struct.NullableDatum] }
%struct.NullableDatum = type { i64, i8 }

@.str.2 = private unnamed_addr constant [6 x i8] c"int.c\00", align 1
@.str.8 = private unnamed_addr constant [17 x i8] c"division by zero\00", align 1
@__func__.int4mod = private unnamed_addr constant [8 x i8] c"int4mod\00", align 1

; Function Attrs: inlinehint nounwind uwtable
define internal i64 @Int32GetDatum(i32 noundef %0) #2 {
  %2 = alloca i32, align 4
  store i32 %0, ptr %2, align 4
  %3 = load i32, ptr %2, align 4
  %4 = sext i32 %3 to i64
  ret i64 %4
}

; Function Attrs: inlinehint nounwind uwtable
define internal i32 @DatumGetInt32(i64 noundef %0) #2 {
  %2 = alloca i64, align 8
  store i64 %0, ptr %2, align 8
  %3 = load i64, ptr %2, align 8
  %4 = trunc i64 %3 to i32
  ret i32 %4
}

; Function Attrs: nounwind uwtable
define dso_local i64 @int4mod(ptr noundef %0) #0 {
  %2 = alloca i64, align 8
  %3 = alloca ptr, align 8
  %4 = alloca i32, align 4
  %5 = alloca i32, align 4
  %6 = alloca i32, align 4
  store ptr %0, ptr %3, align 8
  call void @llvm.lifetime.start.p0(i64 4, ptr %4) #10
  %7 = load ptr, ptr %3, align 8
  %8 = getelementptr inbounds nuw %struct.FunctionCallInfoBaseData, ptr %7, i32 0, i32 6
  %9 = getelementptr inbounds [0 x %struct.NullableDatum], ptr %8, i64 0, i64 0
  %10 = getelementptr inbounds nuw %struct.NullableDatum, ptr %9, i32 0, i32 0
  %11 = load i64, ptr %10, align 8
  %12 = call i32 @DatumGetInt32(i64 noundef %11)
  store i32 %12, ptr %4, align 4
  call void @llvm.lifetime.start.p0(i64 4, ptr %5) #10
  %13 = load ptr, ptr %3, align 8
  %14 = getelementptr inbounds nuw %struct.FunctionCallInfoBaseData, ptr %13, i32 0, i32 6
  %15 = getelementptr inbounds [0 x %struct.NullableDatum], ptr %14, i64 0, i64 1
  %16 = getelementptr inbounds nuw %struct.NullableDatum, ptr %15, i32 0, i32 0
  %17 = load i64, ptr %16, align 8
  %18 = call i32 @DatumGetInt32(i64 noundef %17)
  store i32 %18, ptr %5, align 4
  %19 = load i32, ptr %5, align 4
  %20 = icmp eq i32 %19, 0
  %21 = zext i1 %20 to i32
  %22 = icmp ne i32 %21, 0
  %23 = zext i1 %22 to i32
  %24 = sext i32 %23 to i64
  %25 = call i64 @llvm.expect.i64(i64 %24, i64 0)
  %26 = icmp ne i64 %25, 0
  br i1 %26, label %27, label %44

27:                                               ; preds = %1
  br label %28

28:                                               ; preds = %27
  br i1 true, label %29, label %31

29:                                               ; preds = %28
  %30 = call zeroext i1 @errstart_cold(i32 noundef 21, ptr noundef null) #12
  br i1 %30, label %33, label %36

31:                                               ; preds = %28
  %32 = call zeroext i1 @errstart(i32 noundef 21, ptr noundef null)
  br i1 %32, label %33, label %36

33:                                               ; preds = %31, %29
  %34 = call i32 @errcode(i32 noundef 33816706)
  %35 = call i32 (ptr, ...) @errmsg(ptr noundef @.str.8)
  call void @errfinish(ptr noundef @.str.2, i32 noundef 1139, ptr noundef @__func__.int4mod)
  br label %36

36:                                               ; preds = %33, %31, %29
  unreachable

37:                                               ; No predecessors!
  br label %38

38:                                               ; preds = %37
  br label %39

39:                                               ; preds = %38
  %40 = load ptr, ptr %3, align 8
  %41 = getelementptr inbounds nuw %struct.FunctionCallInfoBaseData, ptr %40, i32 0, i32 4
  store i8 1, ptr %41, align 4
  store i64 0, ptr %2, align 8
  store i32 1, ptr %6, align 4
  br label %54

42:                                               ; No predecessors!
  br label %43

43:                                               ; preds = %42
  br label %44

44:                                               ; preds = %43, %1
  %45 = load i32, ptr %5, align 4
  %46 = icmp eq i32 %45, -1
  br i1 %46, label %47, label %49

47:                                               ; preds = %44
  %48 = call i64 @Int32GetDatum(i32 noundef 0)
  store i64 %48, ptr %2, align 8
  store i32 1, ptr %6, align 4
  br label %54

49:                                               ; preds = %44
  %50 = load i32, ptr %4, align 4
  %51 = load i32, ptr %5, align 4
  %52 = srem i32 %50, %51
  %53 = call i64 @Int32GetDatum(i32 noundef %52)
  store i64 %53, ptr %2, align 8
  store i32 1, ptr %6, align 4
  br label %54

54:                                               ; preds = %49, %47, %39
  call void @llvm.lifetime.end.p0(i64 4, ptr %5) #10
  call void @llvm.lifetime.end.p0(i64 4, ptr %4) #10
  %55 = load i64, ptr %2, align 8
  ret i64 %55
}