; Function Attrs: nounwind uwtable
define dso_local range(i64 -2147483647, 2147483648) i64 @int4mod(ptr noundef readonly captures(none) %0) local_unnamed_addr #0 {
  %2 = getelementptr inbounds nuw i8, ptr %0, i64 48
  %3 = load i64, ptr %2, align 8
  %4 = trunc i64 %3 to i32
  switch i32 %4, label %9 [
    i32 0, label %5
    i32 -1, label %15
  ], !prof !15

5:                                                ; preds = %1
  %6 = tail call zeroext i1 @errstart_cold(i32 noundef 21, ptr noundef null) #15
  tail call void @llvm.assume(i1 %6)
  %7 = tail call i32 @errcode(i32 noundef 33816706) #13
  %8 = tail call i32 (ptr, ...) @errmsg(ptr noundef nonnull @.str.8) #13
  tail call void @errfinish(ptr noundef nonnull @.str.2, i32 noundef 1139, ptr noundef nonnull @__func__.int4mod) #13
  unreachable

9:                                                ; preds = %1
  %10 = getelementptr inbounds nuw i8, ptr %0, i64 32
  %11 = load i64, ptr %10, align 8
  %12 = trunc i64 %11 to i32
  %13 = srem i32 %12, %4
  %14 = sext i32 %13 to i64
  br label %15

15:                                               ; preds = %1, %9
  %.0 = phi i64 [ %14, %9 ], [ 0, %1 ]
  ret i64 %.0
}